LIBRARY hunspell.dll
EXPORTS
??0Hunspell@@QAE@PBD00@Z
??1Hunspell@@QAE@XZ
??4Hunspell@@QAEAAV0@ABV0@@Z
?add@Hunspell@@QAEHPBD@Z
?add_dic@Hunspell@@QAEHPBD0@Z
?add_with_affix@Hunspell@@QAEHPBD0@Z
?analyze@Hunspell@@QAEHPAPAPADPBD@Z
?cat_result@Hunspell@@AAEXPAD0@Z
?check_xml_par@Hunspell@@AAEHPBD00@Z
?checkword@Hunspell@@AAEPAUhentry@@PBDPAHPAPAD@Z
?cleanword2@Hunspell@@AAEHPADPBDPAUw_char@@PAH33@Z
?cleanword@Hunspell@@AAEHPADPBDPAH2@Z
?free_list@Hunspell@@QAEXPAPAPADH@Z
?generate@Hunspell@@QAEHPAPAPADPBD1@Z
?generate@Hunspell@@QAEHPAPAPADPBDPAPADH@Z
?get_csconv@Hunspell@@QAEPAUcs_info@@XZ
?get_dic_encoding@Hunspell@@QAEPADXZ
?get_version@Hunspell@@QAEPBDXZ
?get_wordchars@Hunspell@@QAEPBDXZ
?get_wordchars_utf16@Hunspell@@QAEPAGPAH@Z
?get_xml_list@Hunspell@@AAEHPAPAPADPADPBD@Z
?get_xml_par@Hunspell@@AAEHPADPBDH@Z
?get_xml_pos@Hunspell@@AAEPBDPBD0@Z
?insert_sug@Hunspell@@AAEHPAPAPADPADH@Z
?is_keepcase@Hunspell@@AAEHPBUhentry@@@Z
?mkallcap2@Hunspell@@AAEHPADPAUw_char@@H@Z
?mkallcap@Hunspell@@AAEXPAD@Z
?mkallsmall2@Hunspell@@AAEHPADPAUw_char@@H@Z
?mkallsmall@Hunspell@@AAEXPAD@Z
?mkinitcap2@Hunspell@@AAEHPADPAUw_char@@H@Z
?mkinitcap@Hunspell@@AAEXPAD@Z
?mkinitsmall2@Hunspell@@AAEHPADPAUw_char@@H@Z
?remove@Hunspell@@QAEHPBD@Z
?sharps_u8_l1@Hunspell@@AAEPADPAD0@Z
?spell@Hunspell@@QAEHPBDPAHPAPAD@Z
?spellml@Hunspell@@AAEHPAPAPADPBD@Z
?spellsharps@Hunspell@@AAEPAUhentry@@PAD0HH0PAHPAPAD@Z
?stem@Hunspell@@QAEHPAPAPADPAPADH@Z
?stem@Hunspell@@QAEHPAPAPADPBD@Z
?suggest@Hunspell@@QAEHPAPAPADPBD@Z
Hunspell_add
Hunspell_add_with_affix
Hunspell_analyze
Hunspell_create
Hunspell_create_key
Hunspell_destroy
Hunspell_free_list
Hunspell_generate
Hunspell_get_dic_encoding
Hunspell_remove
Hunspell_spell
Hunspell_stem
Hunspell_suggest
luaopen_hunspell
